; Function Attrs: nounwind uwtable
define dso_local noundef i64 @bttext_pattern_sortsupport(ptr noundef readonly captures(none) %0) local_unnamed_addr #0 {
  %2 = getelementptr inbounds nuw i8, ptr %0, i64 32
  %3 = load i64, ptr %2, align 8
  %4 = inttoptr i64 %3 to ptr
  %5 = load ptr, ptr %4, align 8
  %6 = load ptr, ptr @CurrentMemoryContext, align 8
  store ptr %5, ptr @CurrentMemoryContext, align 8
  tail call void @varstr_sortsupport(ptr noundef nonnull %4, i32 noundef 25, i32 noundef 950)
  store ptr %6, ptr @CurrentMemoryContext, align 8
  ret i64 0
}